target datalayout = "e-m:e-p270:32:32-p271:32:32-p272:64:64-i64:64-i128:128-f80:128-n8:16:32:64-S128"
target triple = "x86_64-unknown-linux-gnu"

%"class.node::MemoryRetainer" = type { ptr }
%"class.node::AsyncWrap" = type { %"class.node::BaseObject", i32, i8, double, double }
%"class.node::BaseObject" = type { %"class.node::MemoryRetainer", %"class.v8::Global", ptr, ptr }
%"class.v8::Global" = type { %"class.v8::PersistentBase" }
%"class.v8::PersistentBase" = type { %"class.v8::IndirectHandleBase" }
%"class.v8::IndirectHandleBase" = type { ptr }
%struct.uv_buf_t = type { ptr, i64 }
%"class.node::BaseObjectPtrImpl" = type { %union.anon.13 }
%union.anon.13 = type { ptr }
%"class.node::fs::FileHandle" = type { %"class.node::AsyncWrap", %"class.node::StreamBase", i32, i8, i8, i8, i64, i64, %"class.node::BaseObjectPtrImpl.14", %"class.node::BaseObjectPtrImpl" }
%"class.node::StreamBase" = type { %"class.node::StreamResource", ptr, %"class.node::EmitToJSStreamListener" }
%"class.node::StreamResource" = type { ptr, ptr, i64, i64 }
%"class.node::EmitToJSStreamListener" = type { %"class.node::ReportWritesToJSStreamListener" }
%"class.node::ReportWritesToJSStreamListener" = type { %"class.node::StreamListener" }
%"class.node::StreamListener" = type { ptr, ptr, ptr }
%"class.node::BaseObjectPtrImpl.14" = type { %union.anon.15 }
%union.anon.15 = type { ptr }
%"class.node::DebugSealHandleScope" = type { i8 }

; Function Attrs: mustprogress nounwind uwtable
define linkonce_odr dso_local void @_ZN4node20DebugSealHandleScopeC2EPN2v87IsolateE(ptr noundef nonnull align 1 dereferenceable(1) %this, ptr noundef %isolate) unnamed_addr #4 comdat align 2 {
entry:
  %this.addr = alloca ptr, align 8
  %isolate.addr = alloca ptr, align 8
  store ptr %this, ptr %this.addr, align 8
  store ptr %isolate, ptr %isolate.addr, align 8
  ret void
}

; Function Attrs: mustprogress nounwind uwtable
define linkonce_odr dso_local void @_ZN4node14StreamResource8EmitReadElRK8uv_buf_t(ptr noundef nonnull align 8 dereferenceable(32) %this, i64 noundef %nread, ptr noundef nonnull align 8 dereferenceable(16) %buf) #4 comdat align 2 {
entry:
  %this.addr = alloca ptr, align 8
  %nread.addr = alloca i64, align 8
  %buf.addr = alloca ptr, align 8
  %seal_handle_scope = alloca %"class.node::DebugSealHandleScope", align 1
  store ptr %this, ptr %this.addr, align 8
  store i64 %nread, ptr %nread.addr, align 8
  store ptr %buf, ptr %buf.addr, align 8
  %this1 = load ptr, ptr %this.addr, align 8
  call void @_ZN4node20DebugSealHandleScopeC2EPN2v87IsolateE(ptr noundef nonnull align 1 dereferenceable(1) %seal_handle_scope, ptr noundef null)
  %0 = load i64, ptr %nread.addr, align 8
  %cmp = icmp sgt i64 %0, 0
  br i1 %cmp, label %if.then, label %if.end

if.then:                                          ; preds = %entry
  %1 = load i64, ptr %nread.addr, align 8
  %bytes_read_ = getelementptr inbounds %"class.node::StreamResource", ptr %this1, i32 0, i32 2
  %2 = load i64, ptr %bytes_read_, align 8
  %add = add i64 %2, %1
  store i64 %add, ptr %bytes_read_, align 8
  br label %if.end

if.end:                                           ; preds = %if.then, %entry
  %listener_ = getelementptr inbounds %"class.node::StreamResource", ptr %this1, i32 0, i32 1
  %3 = load ptr, ptr %listener_, align 8
  %4 = load i64, ptr %nread.addr, align 8
  %5 = load ptr, ptr %buf.addr, align 8
  %vtable = load ptr, ptr %3, align 8
  %vfn = getelementptr inbounds ptr, ptr %vtable, i64 3
  %6 = load ptr, ptr %vfn, align 8
  call void %6(ptr noundef nonnull align 8 dereferenceable(24) %3, i64 noundef %4, ptr noundef nonnull align 8 dereferenceable(16) %5)
  ret void
}

; Function Attrs: mustprogress nounwind uwtable
define linkonce_odr dso_local noundef nonnull align 8 dereferenceable(8) ptr @_ZN4node10BaseObject10persistentEv(ptr noundef nonnull align 8 dereferenceable(32) %this) #4 comdat align 2 {
entry:
  %this.addr = alloca ptr, align 8
  store ptr %this, ptr %this.addr, align 8
  %this1 = load ptr, ptr %this.addr, align 8
  %persistent_handle_ = getelementptr inbounds %"class.node::BaseObject", ptr %this1, i32 0, i32 1
  ret ptr %persistent_handle_
}

; Function Attrs: mustprogress nounwind uwtable
define dso_local void @_ZN4node2fs10FileHandle10AfterCloseEv(ptr noundef nonnull align 8 dereferenceable(160) %this) #4 align 2 {
entry:
  %this.addr.i = alloca ptr, align 8
  %this.addr = alloca ptr, align 8
  %ref.tmp = alloca %struct.uv_buf_t, align 8
  store ptr %this, ptr %this.addr, align 8
  %this1 = load ptr, ptr %this.addr, align 8
  %closing_ = getelementptr inbounds %"class.node::fs::FileHandle", ptr %this1, i32 0, i32 3
  store i8 0, ptr %closing_, align 4
  %closed_ = getelementptr inbounds %"class.node::fs::FileHandle", ptr %this1, i32 0, i32 4
  store i8 1, ptr %closed_, align 1
  %fd_ = getelementptr inbounds %"class.node::fs::FileHandle", ptr %this1, i32 0, i32 2
  store i32 -1, ptr %fd_, align 8
  %reading_ = getelementptr inbounds %"class.node::fs::FileHandle", ptr %this1, i32 0, i32 5
  %0 = load i8, ptr %reading_, align 2
  %tobool = trunc i8 %0 to i1
  br i1 %tobool, label %land.lhs.true, label %if.end

land.lhs.true:                                    ; preds = %entry
  %call = call noundef nonnull align 8 dereferenceable(8) ptr @_ZN4node10BaseObject10persistentEv(ptr noundef nonnull align 8 dereferenceable(32) %this1)
  store ptr %call, ptr %this.addr.i, align 8
  %this1.i = load ptr, ptr %this.addr.i, align 8
  %1 = load ptr, ptr %this1.i, align 8
  %cmp.i = icmp eq ptr %1, null
  br i1 %cmp.i, label %if.end, label %if.then

if.then:                                          ; preds = %land.lhs.true
  %add.ptr = getelementptr inbounds i8, ptr %this1, i64 56
  %call3 = call { ptr, i64 } @uv_buf_init(ptr noundef null, i32 noundef 0)
  %2 = getelementptr inbounds { ptr, i64 }, ptr %ref.tmp, i32 0, i32 0
  %3 = extractvalue { ptr, i64 } %call3, 0
  store ptr %3, ptr %2, align 8
  %4 = getelementptr inbounds { ptr, i64 }, ptr %ref.tmp, i32 0, i32 1
  %5 = extractvalue { ptr, i64 } %call3, 1
  store i64 %5, ptr %4, align 8
  call void @_ZN4node14StreamResource8EmitReadElRK8uv_buf_t(ptr noundef nonnull align 8 dereferenceable(32) %add.ptr, i64 noundef -4095, ptr noundef nonnull align 8 dereferenceable(16) %ref.tmp)
  br label %if.end

if.end:                                           ; preds = %if.then, %land.lhs.true, %entry
  ret void
}

; Function Attrs: mustprogress nounwind uwtable
define linkonce_odr dso_local noundef i32 @_ZN4node2fs10FileHandle5GetFDEv(ptr noundef nonnull align 8 dereferenceable(160) %this) unnamed_addr #4 comdat align 2 {
entry:
  %this.addr = alloca ptr, align 8
  store ptr %this, ptr %this.addr, align 8
  %this1 = load ptr, ptr %this.addr, align 8
  %fd_ = getelementptr inbounds %"class.node::fs::FileHandle", ptr %this1, i32 0, i32 2
  %0 = load i32, ptr %fd_, align 8
  ret i32 %0
}

; Function Attrs: mustprogress nounwind uwtable
define dso_local noundef i32 @_ZN4node2fs10FileHandle7ReleaseEv(ptr noundef nonnull align 8 dereferenceable(160) %this) #4 align 2 {
entry:
  %this.addr = alloca ptr, align 8
  %fd = alloca i32, align 4
  store ptr %this, ptr %this.addr, align 8
  %this1 = load ptr, ptr %this.addr, align 8
  %call = call noundef i32 @_ZN4node2fs10FileHandle5GetFDEv(ptr noundef nonnull align 8 dereferenceable(160) %this1)
  store i32 %call, ptr %fd, align 4
  call void @_ZN4node2fs10FileHandle10AfterCloseEv(ptr noundef nonnull align 8 dereferenceable(160) %this1)
  %0 = load i32, ptr %fd, align 4
  ret i32 %0
}