; Function Attrs: mustprogress nounwind uwtable
define dso_local noundef i32 @_ZN4node2fs10FileHandle7ReleaseEv(ptr nocapture noundef nonnull align 8 dereferenceable(160) %this) local_unnamed_addr #3 align 2 {
entry:
  %ref.tmp.i = alloca %struct.uv_buf_t, align 8
  %fd_.i = getelementptr inbounds i8, ptr %this, i64 120
  %0 = load i32, ptr %fd_.i, align 8
  call void @llvm.lifetime.start.p0(i64 16, ptr nonnull %ref.tmp.i)
  %closing_.i = getelementptr inbounds i8, ptr %this, i64 124
  store i8 0, ptr %closing_.i, align 4
  %closed_.i = getelementptr inbounds i8, ptr %this, i64 125
  store i8 1, ptr %closed_.i, align 1
  store i32 -1, ptr %fd_.i, align 8
  %reading_.i = getelementptr inbounds i8, ptr %this, i64 126
  %1 = load i8, ptr %reading_.i, align 2
  %2 = and i8 %1, 1
  %tobool.not.i = icmp eq i8 %2, 0
  %persistent_handle_.i.i = getelementptr inbounds i8, ptr %this, i64 8
  %3 = load ptr, ptr %persistent_handle_.i.i, align 8
  %cmp.i.i = icmp eq ptr %3, null
  %or.cond.i = select i1 %tobool.not.i, i1 true, i1 %cmp.i.i
  br i1 %or.cond.i, label %_ZN4node2fs10FileHandle10AfterCloseEv.exit, label %if.then.i

if.then.i:                                        ; preds = %entry
  %call3.i = tail call { ptr, i64 } @uv_buf_init(ptr noundef null, i32 noundef 0) #30
  %4 = extractvalue { ptr, i64 } %call3.i, 0
  store ptr %4, ptr %ref.tmp.i, align 8
  %5 = getelementptr inbounds i8, ptr %ref.tmp.i, i64 8
  %6 = extractvalue { ptr, i64 } %call3.i, 1
  store i64 %6, ptr %5, align 8
  %listener_.i.i = getelementptr inbounds i8, ptr %this, i64 64
  %7 = load ptr, ptr %listener_.i.i, align 8
  %vtable.i.i = load ptr, ptr %7, align 8
  %vfn.i.i = getelementptr inbounds i8, ptr %vtable.i.i, i64 24
  %8 = load ptr, ptr %vfn.i.i, align 8
  call void %8(ptr noundef nonnull align 8 dereferenceable(24) %7, i64 noundef -4095, ptr noundef nonnull align 8 dereferenceable(16) %ref.tmp.i) #30
  br label %_ZN4node2fs10FileHandle10AfterCloseEv.exit

_ZN4node2fs10FileHandle10AfterCloseEv.exit:       ; preds = %entry, %if.then.i
  call void @llvm.lifetime.end.p0(i64 16, ptr nonnull %ref.tmp.i)
  ret i32 %0
}